; ModuleID = '46/2627.c'
source_filename = "46/2627.c"
target datalayout = "e-m:e-p270:32:32-p271:32:32-p272:64:64-i64:64-f80:128-n8:16:32:64-S128"
target triple = "x86_64-pc-linux-gnu"

@.str = private unnamed_addr constant [6 x i8] c"%d %d\00", align 1
@.str.1 = private unnamed_addr constant [3 x i8] c"%d\00", align 1
@.str.2 = private unnamed_addr constant [4 x i8] c"%d\0A\00", align 1

; Function Attrs: noinline nounwind uwtable
define dso_local i32 @main() #0 {
  %1 = alloca i32, align 4
  %2 = alloca i32, align 4
  %3 = alloca i32, align 4
  %4 = alloca [100 x [100 x i32]], align 16
  %5 = alloca i32, align 4
  %6 = alloca i32, align 4
  %7 = alloca i32, align 4
  store i32 0, i32* %1, align 4
  %8 = bitcast [100 x [100 x i32]]* %4 to i8*
  call void @llvm.memset.p0i8.i64(i8* align 16 %8, i8 0, i64 40000, i1 false)
  %9 = call i32 (i8*, ...) @__isoc99_scanf(i8* getelementptr inbounds ([6 x i8], [6 x i8]* @.str, i64 0, i64 0), i32* %2, i32* %3)
  store i32 0, i32* %6, align 4
  br label %10

10:                                               ; preds = %31, %0
  %11 = load i32, i32* %6, align 4
  %12 = load i32, i32* %2, align 4
  %13 = icmp slt i32 %11, %12
  br i1 %13, label %14, label %34

14:                                               ; preds = %10
  store i32 0, i32* %7, align 4
  br label %15

15:                                               ; preds = %27, %14
  %16 = load i32, i32* %7, align 4
  %17 = load i32, i32* %3, align 4
  %18 = icmp slt i32 %16, %17
  br i1 %18, label %19, label %30

19:                                               ; preds = %15
  %20 = load i32, i32* %6, align 4
  %21 = sext i32 %20 to i64
  %22 = getelementptr inbounds [100 x [100 x i32]], [100 x [100 x i32]]* %4, i64 0, i64 %21
  %23 = load i32, i32* %7, align 4
  %24 = sext i32 %23 to i64
  %25 = getelementptr inbounds [100 x i32], [100 x i32]* %22, i64 0, i64 %24
  %26 = call i32 (i8*, ...) @__isoc99_scanf(i8* getelementptr inbounds ([3 x i8], [3 x i8]* @.str.1, i64 0, i64 0), i32* %25)
  br label %27

27:                                               ; preds = %19
  %28 = load i32, i32* %7, align 4
  %29 = add nsw i32 %28, 1
  store i32 %29, i32* %7, align 4
  br label %15

30:                                               ; preds = %15
  br label %31

31:                                               ; preds = %30
  %32 = load i32, i32* %6, align 4
  %33 = add nsw i32 %32, 1
  store i32 %33, i32* %6, align 4
  br label %10

34:                                               ; preds = %10
  store i32 0, i32* %6, align 4
  store i32 0, i32* %7, align 4
  store i32 1, i32* %5, align 4
  %35 = getelementptr inbounds [100 x [100 x i32]], [100 x [100 x i32]]* %4, i64 0, i64 0
  %36 = getelementptr inbounds [100 x i32], [100 x i32]* %35, i64 0, i64 0
  %37 = load i32, i32* %36, align 16
  %38 = call i32 (i8*, ...) @printf(i8* getelementptr inbounds ([4 x i8], [4 x i8]* @.str.2, i64 0, i64 0), i32 %37)
  %39 = getelementptr inbounds [100 x [100 x i32]], [100 x [100 x i32]]* %4, i64 0, i64 0
  %40 = getelementptr inbounds [100 x i32], [100 x i32]* %39, i64 0, i64 0
  store i32 0, i32* %40, align 16
  br label %41

41:                                               ; preds = %34, %202
  br label %42

42:                                               ; preds = %41, %72
  %43 = load i32, i32* %6, align 4
  %44 = sext i32 %43 to i64
  %45 = getelementptr inbounds [100 x [100 x i32]], [100 x [100 x i32]]* %4, i64 0, i64 %44
  %46 = load i32, i32* %7, align 4
  %47 = add nsw i32 %46, 1
  %48 = sext i32 %47 to i64
  %49 = getelementptr inbounds [100 x i32], [100 x i32]* %45, i64 0, i64 %48
  %50 = load i32, i32* %49, align 4
  %51 = icmp ne i32 %50, 0
  br i1 %51, label %52, label %71

52:                                               ; preds = %42
  %53 = load i32, i32* %7, align 4
  %54 = add nsw i32 %53, 1
  store i32 %54, i32* %7, align 4
  %55 = load i32, i32* %6, align 4
  %56 = sext i32 %55 to i64
  %57 = getelementptr inbounds [100 x [100 x i32]], [100 x [100 x i32]]* %4, i64 0, i64 %56
  %58 = load i32, i32* %7, align 4
  %59 = sext i32 %58 to i64
  %60 = getelementptr inbounds [100 x i32], [100 x i32]* %57, i64 0, i64 %59
  %61 = load i32, i32* %60, align 4
  %62 = call i32 (i8*, ...) @printf(i8* getelementptr inbounds ([4 x i8], [4 x i8]* @.str.2, i64 0, i64 0), i32 %61)
  %63 = load i32, i32* %5, align 4
  %64 = add nsw i32 %63, 1
  store i32 %64, i32* %5, align 4
  %65 = load i32, i32* %6, align 4
  %66 = sext i32 %65 to i64
  %67 = getelementptr inbounds [100 x [100 x i32]], [100 x [100 x i32]]* %4, i64 0, i64 %66
  %68 = load i32, i32* %7, align 4
  %69 = sext i32 %68 to i64
  %70 = getelementptr inbounds [100 x i32], [100 x i32]* %67, i64 0, i64 %69
  store i32 0, i32* %70, align 4
  br label %72

71:                                               ; preds = %42
  br label %73

72:                                               ; preds = %52
  br label %42

73:                                               ; preds = %71
  %74 = load i32, i32* %5, align 4
  %75 = load i32, i32* %2, align 4
  %76 = load i32, i32* %3, align 4
  %77 = mul nsw i32 %75, %76
  %78 = icmp eq i32 %74, %77
  br i1 %78, label %79, label %80

79:                                               ; preds = %73
  br label %203

80:                                               ; preds = %73
  br label %81

81:                                               ; preds = %80, %111
  %82 = load i32, i32* %6, align 4
  %83 = add nsw i32 %82, 1
  %84 = sext i32 %83 to i64
  %85 = getelementptr inbounds [100 x [100 x i32]], [100 x [100 x i32]]* %4, i64 0, i64 %84
  %86 = load i32, i32* %7, align 4
  %87 = sext i32 %86 to i64
  %88 = getelementptr inbounds [100 x i32], [100 x i32]* %85, i64 0, i64 %87
  %89 = load i32, i32* %88, align 4
  %90 = icmp ne i32 %89, 0
  br i1 %90, label %91, label %110

91:                                               ; preds = %81
  %92 = load i32, i32* %6, align 4
  %93 = add nsw i32 %92, 1
  store i32 %93, i32* %6, align 4
  %94 = load i32, i32* %6, align 4
  %95 = sext i32 %94 to i64
  %96 = getelementptr inbounds [100 x [100 x i32]], [100 x [100 x i32]]* %4, i64 0, i64 %95
  %97 = load i32, i32* %7, align 4
  %98 = sext i32 %97 to i64
  %99 = getelementptr inbounds [100 x i32], [100 x i32]* %96, i64 0, i64 %98
  %100 = load i32, i32* %99, align 4
  %101 = call i32 (i8*, ...) @printf(i8* getelementptr inbounds ([4 x i8], [4 x i8]* @.str.2, i64 0, i64 0), i32 %100)
  %102 = load i32, i32* %5, align 4
  %103 = add nsw i32 %102, 1
  store i32 %103, i32* %5, align 4
  %104 = load i32, i32* %6, align 4
  %105 = sext i32 %104 to i64
  %106 = getelementptr inbounds [100 x [100 x i32]], [100 x [100 x i32]]* %4, i64 0, i64 %105
  %107 = load i32, i32* %7, align 4
  %108 = sext i32 %107 to i64
  %109 = getelementptr inbounds [100 x i32], [100 x i32]* %106, i64 0, i64 %108
  store i32 0, i32* %109, align 4
  br label %111

110:                                              ; preds = %81
  br label %112

111:                                              ; preds = %91
  br label %81

112:                                              ; preds = %110
  %113 = load i32, i32* %5, align 4
  %114 = load i32, i32* %2, align 4
  %115 = load i32, i32* %3, align 4
  %116 = mul nsw i32 %114, %115
  %117 = icmp eq i32 %113, %116
  br i1 %117, label %118, label %119

118:                                              ; preds = %112
  br label %203

119:                                              ; preds = %112
  br label %120

120:                                              ; preds = %119, %155
  %121 = load i32, i32* %7, align 4
  %122 = icmp eq i32 %121, 0
  br i1 %122, label %123, label %124

123:                                              ; preds = %120
  br label %156

124:                                              ; preds = %120
  %125 = load i32, i32* %6, align 4
  %126 = sext i32 %125 to i64
  %127 = getelementptr inbounds [100 x [100 x i32]], [100 x [100 x i32]]* %4, i64 0, i64 %126
  %128 = load i32, i32* %7, align 4
  %129 = sub nsw i32 %128, 1
  %130 = sext i32 %129 to i64
  %131 = getelementptr inbounds [100 x i32], [100 x i32]* %127, i64 0, i64 %130
  %132 = load i32, i32* %131, align 4
  %133 = icmp ne i32 %132, 0
  br i1 %133, label %134, label %153

134:                                              ; preds = %124
  %135 = load i32, i32* %7, align 4
  %136 = add nsw i32 %135, -1
  store i32 %136, i32* %7, align 4
  %137 = load i32, i32* %6, align 4
  %138 = sext i32 %137 to i64
  %139 = getelementptr inbounds [100 x [100 x i32]], [100 x [100 x i32]]* %4, i64 0, i64 %138
  %140 = load i32, i32* %7, align 4
  %141 = sext i32 %140 to i64
  %142 = getelementptr inbounds [100 x i32], [100 x i32]* %139, i64 0, i64 %141
  %143 = load i32, i32* %142, align 4
  %144 = call i32 (i8*, ...) @printf(i8* getelementptr inbounds ([4 x i8], [4 x i8]* @.str.2, i64 0, i64 0), i32 %143)
  %145 = load i32, i32* %5, align 4
  %146 = add nsw i32 %145, 1
  store i32 %146, i32* %5, align 4
  %147 = load i32, i32* %6, align 4
  %148 = sext i32 %147 to i64
  %149 = getelementptr inbounds [100 x [100 x i32]], [100 x [100 x i32]]* %4, i64 0, i64 %148
  %150 = load i32, i32* %7, align 4
  %151 = sext i32 %150 to i64
  %152 = getelementptr inbounds [100 x i32], [100 x i32]* %149, i64 0, i64 %151
  store i32 0, i32* %152, align 4
  br label %154

153:                                              ; preds = %124
  br label %156

154:                                              ; preds = %134
  br label %155

155:                                              ; preds = %154
  br label %120

156:                                              ; preds = %153, %123
  %157 = load i32, i32* %5, align 4
  %158 = load i32, i32* %2, align 4
  %159 = load i32, i32* %3, align 4
  %160 = mul nsw i32 %158, %159
  %161 = icmp eq i32 %157, %160
  br i1 %161, label %162, label %163

162:                                              ; preds = %156
  br label %203

163:                                              ; preds = %156
  br label %164

164:                                              ; preds = %163, %194
  %165 = load i32, i32* %6, align 4
  %166 = sub nsw i32 %165, 1
  %167 = sext i32 %166 to i64
  %168 = getelementptr inbounds [100 x [100 x i32]], [100 x [100 x i32]]* %4, i64 0, i64 %167
  %169 = load i32, i32* %7, align 4
  %170 = sext i32 %169 to i64
  %171 = getelementptr inbounds [100 x i32], [100 x i32]* %168, i64 0, i64 %170
  %172 = load i32, i32* %171, align 4
  %173 = icmp ne i32 %172, 0
  br i1 %173, label %174, label %193

174:                                              ; preds = %164
  %175 = load i32, i32* %6, align 4
  %176 = add nsw i32 %175, -1
  store i32 %176, i32* %6, align 4
  %177 = load i32, i32* %6, align 4
  %178 = sext i32 %177 to i64
  %179 = getelementptr inbounds [100 x [100 x i32]], [100 x [100 x i32]]* %4, i64 0, i64 %178
  %180 = load i32, i32* %7, align 4
  %181 = sext i32 %180 to i64
  %182 = getelementptr inbounds [100 x i32], [100 x i32]* %179, i64 0, i64 %181
  %183 = load i32, i32* %182, align 4
  %184 = call i32 (i8*, ...) @printf(i8* getelementptr inbounds ([4 x i8], [4 x i8]* @.str.2, i64 0, i64 0), i32 %183)
  %185 = load i32, i32* %5, align 4
  %186 = add nsw i32 %185, 1
  store i32 %186, i32* %5, align 4
  %187 = load i32, i32* %6, align 4
  %188 = sext i32 %187 to i64
  %189 = getelementptr inbounds [100 x [100 x i32]], [100 x [100 x i32]]* %4, i64 0, i64 %188
  %190 = load i32, i32* %7, align 4
  %191 = sext i32 %190 to i64
  %192 = getelementptr inbounds [100 x i32], [100 x i32]* %189, i64 0, i64 %191
  store i32 0, i32* %192, align 4
  br label %194

193:                                              ; preds = %164
  br label %195

194:                                              ; preds = %174
  br label %164

195:                                              ; preds = %193
  %196 = load i32, i32* %5, align 4
  %197 = load i32, i32* %2, align 4
  %198 = load i32, i32* %3, align 4
  %199 = mul nsw i32 %197, %198
  %200 = icmp eq i32 %196, %199
  br i1 %200, label %201, label %202

201:                                              ; preds = %195
  br label %203

202:                                              ; preds = %195
  br label %41

203:                                              ; preds = %201, %162, %118, %79
  ret i32 0
}

; Function Attrs: argmemonly nounwind willreturn
declare void @llvm.memset.p0i8.i64(i8* nocapture writeonly, i8, i64, i1 immarg) #1

declare dso_local i32 @__isoc99_scanf(i8*, ...) #2

declare dso_local i32 @printf(i8*, ...) #2


!llvm.module.flags = !{!0}
!llvm.ident = !{!1}

!0 = !{i32 1, !"wchar_size", i32 4}
!1 = !{!"clang version 10.0.0-4ubuntu1 "}
